target datalayout = "e-m:e-p270:32:32-p271:32:32-p272:64:64-i64:64-i128:128-f80:128-n8:16:32:64-S128"
target triple = "x86_64-pc-linux-gnu"

%"class.ncnn::Input" = type { %"class.ncnn::Layer", i32, i32, i32, i32 }
%"class.ncnn::Layer" = type { ptr, i8, i8, i8, i8, i8, i8, i8, i8, i8, i8, i8, i8, i8, i8, i8, i8, i8, i8, i8, i8, i32, ptr, i32, %"class.std::__cxx11::basic_string", %"class.std::__cxx11::basic_string", %"class.std::vector", %"class.std::vector", %"class.std::vector.3", %"class.std::vector.3" }
%"class.std::__cxx11::basic_string" = type { %"struct.std::__cxx11::basic_string<char>::_Alloc_hider", i64, %union.anon }
%"struct.std::__cxx11::basic_string<char>::_Alloc_hider" = type { ptr }
%union.anon = type { i64, [8 x i8] }
%"class.std::vector" = type { %"struct.std::_Vector_base" }
%"struct.std::_Vector_base" = type { %"struct.std::_Vector_base<int, std::allocator<int>>::_Vector_impl" }
%"struct.std::_Vector_base<int, std::allocator<int>>::_Vector_impl" = type { %"struct.std::_Vector_base<int, std::allocator<int>>::_Vector_impl_data" }
%"struct.std::_Vector_base<int, std::allocator<int>>::_Vector_impl_data" = type { ptr, ptr, ptr }
%"class.std::vector.3" = type { %"struct.std::_Vector_base.4" }
%"struct.std::_Vector_base.4" = type { %"struct.std::_Vector_base<ncnn::Mat, std::allocator<ncnn::Mat>>::_Vector_impl" }
%"struct.std::_Vector_base<ncnn::Mat, std::allocator<ncnn::Mat>>::_Vector_impl" = type { %"struct.std::_Vector_base<ncnn::Mat, std::allocator<ncnn::Mat>>::_Vector_impl_data" }
%"struct.std::_Vector_base<ncnn::Mat, std::allocator<ncnn::Mat>>::_Vector_impl_data" = type { ptr, ptr, ptr }

$_ZN4ncnn5InputD0Ev = comdat any

@_ZTVN4ncnn5InputE = hidden unnamed_addr constant { [12 x ptr] } { [12 x ptr] [ptr null, ptr @_ZTIN4ncnn5InputE, ptr @_ZN4ncnn5LayerD2Ev, ptr @_ZN4ncnn5InputD0Ev, ptr @_ZN4ncnn5Input10load_paramERKNS_9ParamDictE, ptr @_ZN4ncnn5Layer10load_modelERKNS_8ModelBinE, ptr @_ZN4ncnn5Layer15create_pipelineERKNS_6OptionE, ptr @_ZN4ncnn5Layer16destroy_pipelineERKNS_6OptionE, ptr @_ZNK4ncnn5Layer7forwardERKSt6vectorINS_3MatESaIS2_EERS4_RKNS_6OptionE, ptr @_ZNK4ncnn5Layer7forwardERKNS_3MatERS1_RKNS_6OptionE, ptr @_ZNK4ncnn5Layer15forward_inplaceERSt6vectorINS_3MatESaIS2_EERKNS_6OptionE, ptr @_ZNK4ncnn5Input15forward_inplaceERNS_3MatERKNS_6OptionE] }, align 8
@_ZTIN4ncnn5InputE = hidden constant { ptr, ptr, ptr } { ptr getelementptr inbounds (ptr, ptr @_ZTVN10__cxxabiv120__si_class_type_infoE, i64 2), ptr @_ZTSN4ncnn5InputE, ptr @_ZTIN4ncnn5LayerE }, align 8
@_ZTVN10__cxxabiv120__si_class_type_infoE = external global [0 x ptr]
@_ZTSN4ncnn5InputE = hidden constant [14 x i8] c"N4ncnn5InputE\00", align 1
@_ZTIN4ncnn5LayerE = external constant ptr

@_ZN4ncnn5InputC1Ev = hidden unnamed_addr alias void (ptr), ptr @_ZN4ncnn5InputC2Ev

; Function Attrs: nounwind
declare void @_ZN4ncnn5LayerD2Ev(ptr noundef nonnull align 8 dereferenceable(208)) unnamed_addr #0

; Function Attrs: inlinehint mustprogress nounwind uwtable
define linkonce_odr hidden void @_ZN4ncnn5InputD0Ev(ptr noundef nonnull align 8 dereferenceable(224) %0) unnamed_addr #1 comdat align 2 {
  %2 = alloca ptr, align 8
  store ptr %0, ptr %2, align 8, !tbaa !4
  %3 = load ptr, ptr %2, align 8
  call void @_ZN4ncnn5LayerD2Ev(ptr noundef nonnull align 8 dereferenceable(224) %3) #6
  call void @_ZdlPvm(ptr noundef %3, i64 noundef 224) #7
  ret void
}

; Function Attrs: mustprogress uwtable
define hidden noundef i32 @_ZN4ncnn5Input10load_paramERKNS_9ParamDictE(ptr noundef nonnull align 8 dereferenceable(224) %0, ptr noundef nonnull align 8 dereferenceable(16) %1) unnamed_addr #2 align 2 {
  %3 = alloca ptr, align 8
  %4 = alloca ptr, align 8
  store ptr %0, ptr %3, align 8, !tbaa !4
  store ptr %1, ptr %4, align 8, !tbaa !9
  %5 = load ptr, ptr %3, align 8
  %6 = load ptr, ptr %4, align 8, !tbaa !9
  %7 = call noundef i32 @_ZNK4ncnn9ParamDict3getEii(ptr noundef nonnull align 8 dereferenceable(16) %6, i32 noundef 0, i32 noundef 0)
  %8 = getelementptr inbounds nuw %"class.ncnn::Input", ptr %5, i32 0, i32 1
  store i32 %7, ptr %8, align 8, !tbaa !11
  %9 = load ptr, ptr %4, align 8, !tbaa !9
  %10 = call noundef i32 @_ZNK4ncnn9ParamDict3getEii(ptr noundef nonnull align 8 dereferenceable(16) %9, i32 noundef 1, i32 noundef 0)
  %11 = getelementptr inbounds nuw %"class.ncnn::Input", ptr %5, i32 0, i32 2
  store i32 %10, ptr %11, align 4, !tbaa !30
  %12 = load ptr, ptr %4, align 8, !tbaa !9
  %13 = call noundef i32 @_ZNK4ncnn9ParamDict3getEii(ptr noundef nonnull align 8 dereferenceable(16) %12, i32 noundef 11, i32 noundef 0)
  %14 = getelementptr inbounds nuw %"class.ncnn::Input", ptr %5, i32 0, i32 3
  store i32 %13, ptr %14, align 8, !tbaa !31
  %15 = load ptr, ptr %4, align 8, !tbaa !9
  %16 = call noundef i32 @_ZNK4ncnn9ParamDict3getEii(ptr noundef nonnull align 8 dereferenceable(16) %15, i32 noundef 2, i32 noundef 0)
  %17 = getelementptr inbounds nuw %"class.ncnn::Input", ptr %5, i32 0, i32 4
  store i32 %16, ptr %17, align 4, !tbaa !32
  ret i32 0
}

declare noundef i32 @_ZN4ncnn5Layer10load_modelERKNS_8ModelBinE(ptr noundef nonnull align 8 dereferenceable(208), ptr noundef nonnull align 8 dereferenceable(8)) unnamed_addr #3

declare noundef i32 @_ZN4ncnn5Layer15create_pipelineERKNS_6OptionE(ptr noundef nonnull align 8 dereferenceable(208), ptr noundef nonnull align 8 dereferenceable(64)) unnamed_addr #3

declare noundef i32 @_ZN4ncnn5Layer16destroy_pipelineERKNS_6OptionE(ptr noundef nonnull align 8 dereferenceable(208), ptr noundef nonnull align 8 dereferenceable(64)) unnamed_addr #3

declare noundef i32 @_ZNK4ncnn5Layer7forwardERKSt6vectorINS_3MatESaIS2_EERS4_RKNS_6OptionE(ptr noundef nonnull align 8 dereferenceable(208), ptr noundef nonnull align 8 dereferenceable(24), ptr noundef nonnull align 8 dereferenceable(24), ptr noundef nonnull align 8 dereferenceable(64)) unnamed_addr #3

declare noundef i32 @_ZNK4ncnn5Layer7forwardERKNS_3MatERS1_RKNS_6OptionE(ptr noundef nonnull align 8 dereferenceable(208), ptr noundef nonnull align 8 dereferenceable(72), ptr noundef nonnull align 8 dereferenceable(72), ptr noundef nonnull align 8 dereferenceable(64)) unnamed_addr #3

declare noundef i32 @_ZNK4ncnn5Layer15forward_inplaceERSt6vectorINS_3MatESaIS2_EERKNS_6OptionE(ptr noundef nonnull align 8 dereferenceable(208), ptr noundef nonnull align 8 dereferenceable(24), ptr noundef nonnull align 8 dereferenceable(64)) unnamed_addr #3

; Function Attrs: mustprogress nounwind uwtable
define hidden noundef i32 @_ZNK4ncnn5Input15forward_inplaceERNS_3MatERKNS_6OptionE(ptr noundef nonnull align 8 dereferenceable(224) %0, ptr noundef nonnull align 8 dereferenceable(72) %1, ptr noundef nonnull align 8 dereferenceable(64) %2) unnamed_addr #4 align 2 {
  %4 = alloca ptr, align 8
  %5 = alloca ptr, align 8
  %6 = alloca ptr, align 8
  store ptr %0, ptr %4, align 8, !tbaa !4
  store ptr %1, ptr %5, align 8, !tbaa !33
  store ptr %2, ptr %6, align 8, !tbaa !34
  ret i32 0
}

; Function Attrs: mustprogress uwtable
define hidden void @_ZN4ncnn5InputC2Ev(ptr noundef nonnull align 8 dereferenceable(224) %0) unnamed_addr #2 align 2 {
  %2 = alloca ptr, align 8
  store ptr %0, ptr %2, align 8, !tbaa !4
  %3 = load ptr, ptr %2, align 8
  call void @_ZN4ncnn5LayerC2Ev(ptr noundef nonnull align 8 dereferenceable(208) %3)
  store ptr getelementptr inbounds inrange(-16, 80) ({ [12 x ptr] }, ptr @_ZTVN4ncnn5InputE, i32 0, i32 0, i32 2), ptr %3, align 8, !tbaa !36
  %4 = getelementptr inbounds nuw %"class.ncnn::Layer", ptr %3, i32 0, i32 1
  store i8 1, ptr %4, align 8, !tbaa !38
  %5 = getelementptr inbounds nuw %"class.ncnn::Layer", ptr %3, i32 0, i32 2
  store i8 1, ptr %5, align 1, !tbaa !39
  %6 = getelementptr inbounds nuw %"class.ncnn::Layer", ptr %3, i32 0, i32 3
  store i8 1, ptr %6, align 2, !tbaa !40
  %7 = getelementptr inbounds nuw %"class.ncnn::Layer", ptr %3, i32 0, i32 4
  store i8 1, ptr %7, align 1, !tbaa !41
  %8 = getelementptr inbounds nuw %"class.ncnn::Layer", ptr %3, i32 0, i32 5
  store i8 1, ptr %8, align 4, !tbaa !42
  %9 = getelementptr inbounds nuw %"class.ncnn::Layer", ptr %3, i32 0, i32 8
  store i8 1, ptr %9, align 1, !tbaa !43
  ret void
}

declare void @_ZN4ncnn5LayerC2Ev(ptr noundef nonnull align 8 dereferenceable(208)) unnamed_addr #3

declare noundef i32 @_ZNK4ncnn9ParamDict3getEii(ptr noundef nonnull align 8 dereferenceable(16), i32 noundef, i32 noundef) #3

; Function Attrs: nobuiltin nounwind
declare void @_ZdlPvm(ptr noundef, i64 noundef) #5


!llvm.module.flags = !{!0, !1, !2, !3}

!0 = !{i32 1, !"wchar_size", i32 4}
!1 = !{i32 7, !"openmp", i32 51}
!2 = !{i32 8, !"PIC Level", i32 2}
!3 = !{i32 7, !"uwtable", i32 2}
!4 = !{!5, !5, i64 0}
!5 = !{!"p1 _ZTSN4ncnn5InputE", !6, i64 0}
!6 = !{!"any pointer", !7, i64 0}
!7 = !{!"omnipotent char", !8, i64 0}
!8 = !{!"Simple C++ TBAA"}
!9 = !{!10, !10, i64 0}
!10 = !{!"p1 _ZTSN4ncnn9ParamDictE", !6, i64 0}
!11 = !{!12, !15, i64 208}
!12 = !{!"_ZTSN4ncnn5InputE", !13, i64 0, !15, i64 208, !15, i64 212, !15, i64 216, !15, i64 220}
!13 = !{!"_ZTSN4ncnn5LayerE", !14, i64 8, !14, i64 9, !14, i64 10, !14, i64 11, !14, i64 12, !14, i64 13, !14, i64 14, !14, i64 15, !14, i64 16, !14, i64 17, !14, i64 18, !14, i64 19, !14, i64 20, !14, i64 21, !14, i64 22, !14, i64 23, !14, i64 24, !14, i64 25, !14, i64 26, !14, i64 27, !15, i64 28, !6, i64 32, !15, i64 40, !16, i64 48, !16, i64 80, !20, i64 112, !20, i64 136, !25, i64 160, !25, i64 184}
!14 = !{!"bool", !7, i64 0}
!15 = !{!"int", !7, i64 0}
!16 = !{!"_ZTSNSt7__cxx1112basic_stringIcSt11char_traitsIcESaIcEEE", !17, i64 0, !19, i64 8, !7, i64 16}
!17 = !{!"_ZTSNSt7__cxx1112basic_stringIcSt11char_traitsIcESaIcEE12_Alloc_hiderE", !18, i64 0}
!18 = !{!"p1 omnipotent char", !6, i64 0}
!19 = !{!"long", !7, i64 0}
!20 = !{!"_ZTSSt6vectorIiSaIiEE", !21, i64 0}
!21 = !{!"_ZTSSt12_Vector_baseIiSaIiEE", !22, i64 0}
!22 = !{!"_ZTSNSt12_Vector_baseIiSaIiEE12_Vector_implE", !23, i64 0}
!23 = !{!"_ZTSNSt12_Vector_baseIiSaIiEE17_Vector_impl_dataE", !24, i64 0, !24, i64 8, !24, i64 16}
!24 = !{!"p1 int", !6, i64 0}
!25 = !{!"_ZTSSt6vectorIN4ncnn3MatESaIS1_EE", !26, i64 0}
!26 = !{!"_ZTSSt12_Vector_baseIN4ncnn3MatESaIS1_EE", !27, i64 0}
!27 = !{!"_ZTSNSt12_Vector_baseIN4ncnn3MatESaIS1_EE12_Vector_implE", !28, i64 0}
!28 = !{!"_ZTSNSt12_Vector_baseIN4ncnn3MatESaIS1_EE17_Vector_impl_dataE", !29, i64 0, !29, i64 8, !29, i64 16}
!29 = !{!"p1 _ZTSN4ncnn3MatE", !6, i64 0}
!30 = !{!12, !15, i64 212}
!31 = !{!12, !15, i64 216}
!32 = !{!12, !15, i64 220}
!33 = !{!29, !29, i64 0}
!34 = !{!35, !35, i64 0}
!35 = !{!"p1 _ZTSN4ncnn6OptionE", !6, i64 0}
!36 = !{!37, !37, i64 0}
!37 = !{!"vtable pointer", !8, i64 0}
!38 = !{!13, !14, i64 8}
!39 = !{!13, !14, i64 9}
!40 = !{!13, !14, i64 10}
!41 = !{!13, !14, i64 11}
!42 = !{!13, !14, i64 12}
!43 = !{!13, !14, i64 15}
