; ModuleID = 'bench/ncnn/original/input.ll'
source_filename = "bench/ncnn/original/input.ll"
target datalayout = "e-m:e-p270:32:32-p271:32:32-p272:64:64-i64:64-i128:128-f80:128-n8:16:32:64-S128"
target triple = "x86_64-pc-linux-gnu"

$_ZN4ncnn5InputD0Ev = comdat any

@_ZTVN4ncnn5InputE = hidden unnamed_addr constant { [12 x ptr] } { [12 x ptr] [ptr null, ptr @_ZTIN4ncnn5InputE, ptr @_ZN4ncnn5LayerD2Ev, ptr @_ZN4ncnn5InputD0Ev, ptr @_ZN4ncnn5Input10load_paramERKNS_9ParamDictE, ptr @_ZN4ncnn5Layer10load_modelERKNS_8ModelBinE, ptr @_ZN4ncnn5Layer15create_pipelineERKNS_6OptionE, ptr @_ZN4ncnn5Layer16destroy_pipelineERKNS_6OptionE, ptr @_ZNK4ncnn5Layer7forwardERKSt6vectorINS_3MatESaIS2_EERS4_RKNS_6OptionE, ptr @_ZNK4ncnn5Layer7forwardERKNS_3MatERS1_RKNS_6OptionE, ptr @_ZNK4ncnn5Layer15forward_inplaceERSt6vectorINS_3MatESaIS2_EERKNS_6OptionE, ptr @_ZNK4ncnn5Input15forward_inplaceERNS_3MatERKNS_6OptionE] }, align 8
@_ZTIN4ncnn5InputE = hidden constant { ptr, ptr, ptr } { ptr getelementptr inbounds (ptr, ptr @_ZTVN10__cxxabiv120__si_class_type_infoE, i64 2), ptr @_ZTSN4ncnn5InputE, ptr @_ZTIN4ncnn5LayerE }, align 8
@_ZTVN10__cxxabiv120__si_class_type_infoE = external global [0 x ptr]
@_ZTSN4ncnn5InputE = hidden constant [14 x i8] c"N4ncnn5InputE\00", align 1
@_ZTIN4ncnn5LayerE = external constant ptr

@_ZN4ncnn5InputC1Ev = hidden unnamed_addr alias void (ptr), ptr @_ZN4ncnn5InputC2Ev

; Function Attrs: nounwind
declare void @_ZN4ncnn5LayerD2Ev(ptr noundef nonnull align 8 dereferenceable(208)) unnamed_addr #0

; Function Attrs: inlinehint mustprogress nounwind uwtable
define linkonce_odr hidden void @_ZN4ncnn5InputD0Ev(ptr noundef nonnull align 8 dereferenceable(224) %0) unnamed_addr #1 comdat align 2 {
  tail call void @_ZN4ncnn5LayerD2Ev(ptr noundef nonnull align 8 dereferenceable(224) %0) #7
  tail call void @_ZdlPvm(ptr noundef nonnull %0, i64 noundef 224) #8
  ret void
}

; Function Attrs: mustprogress uwtable
define hidden noundef i32 @_ZN4ncnn5Input10load_paramERKNS_9ParamDictE(ptr noundef nonnull writeonly align 8 captures(none) dereferenceable(224) initializes((208, 224)) %0, ptr noundef nonnull align 8 dereferenceable(16) %1) unnamed_addr #2 align 2 {
  %3 = tail call noundef i32 @_ZNK4ncnn9ParamDict3getEii(ptr noundef nonnull align 8 dereferenceable(16) %1, i32 noundef 0, i32 noundef 0)
  %4 = getelementptr inbounds nuw i8, ptr %0, i64 208
  store i32 %3, ptr %4, align 8, !tbaa !4
  %5 = tail call noundef i32 @_ZNK4ncnn9ParamDict3getEii(ptr noundef nonnull align 8 dereferenceable(16) %1, i32 noundef 1, i32 noundef 0)
  %6 = getelementptr inbounds nuw i8, ptr %0, i64 212
  store i32 %5, ptr %6, align 4, !tbaa !26
  %7 = tail call noundef i32 @_ZNK4ncnn9ParamDict3getEii(ptr noundef nonnull align 8 dereferenceable(16) %1, i32 noundef 11, i32 noundef 0)
  %8 = getelementptr inbounds nuw i8, ptr %0, i64 216
  store i32 %7, ptr %8, align 8, !tbaa !27
  %9 = tail call noundef i32 @_ZNK4ncnn9ParamDict3getEii(ptr noundef nonnull align 8 dereferenceable(16) %1, i32 noundef 2, i32 noundef 0)
  %10 = getelementptr inbounds nuw i8, ptr %0, i64 220
  store i32 %9, ptr %10, align 4, !tbaa !28
  ret i32 0
}

declare noundef i32 @_ZN4ncnn5Layer10load_modelERKNS_8ModelBinE(ptr noundef nonnull align 8 dereferenceable(208), ptr noundef nonnull align 8 dereferenceable(8)) unnamed_addr #3

declare noundef i32 @_ZN4ncnn5Layer15create_pipelineERKNS_6OptionE(ptr noundef nonnull align 8 dereferenceable(208), ptr noundef nonnull align 8 dereferenceable(64)) unnamed_addr #3

declare noundef i32 @_ZN4ncnn5Layer16destroy_pipelineERKNS_6OptionE(ptr noundef nonnull align 8 dereferenceable(208), ptr noundef nonnull align 8 dereferenceable(64)) unnamed_addr #3

declare noundef i32 @_ZNK4ncnn5Layer7forwardERKSt6vectorINS_3MatESaIS2_EERS4_RKNS_6OptionE(ptr noundef nonnull align 8 dereferenceable(208), ptr noundef nonnull align 8 dereferenceable(24), ptr noundef nonnull align 8 dereferenceable(24), ptr noundef nonnull align 8 dereferenceable(64)) unnamed_addr #3

declare noundef i32 @_ZNK4ncnn5Layer7forwardERKNS_3MatERS1_RKNS_6OptionE(ptr noundef nonnull align 8 dereferenceable(208), ptr noundef nonnull align 8 dereferenceable(72), ptr noundef nonnull align 8 dereferenceable(72), ptr noundef nonnull align 8 dereferenceable(64)) unnamed_addr #3

declare noundef i32 @_ZNK4ncnn5Layer15forward_inplaceERSt6vectorINS_3MatESaIS2_EERKNS_6OptionE(ptr noundef nonnull align 8 dereferenceable(208), ptr noundef nonnull align 8 dereferenceable(24), ptr noundef nonnull align 8 dereferenceable(64)) unnamed_addr #3

; Function Attrs: mustprogress nofree norecurse nosync nounwind willreturn memory(none) uwtable
define hidden noundef i32 @_ZNK4ncnn5Input15forward_inplaceERNS_3MatERKNS_6OptionE(ptr nonnull readnone align 8 captures(none) %0, ptr nonnull readnone align 8 captures(none) %1, ptr nonnull readnone align 8 captures(none) %2) unnamed_addr #4 align 2 {
  ret i32 0
}

; Function Attrs: mustprogress uwtable
define hidden void @_ZN4ncnn5InputC2Ev(ptr noundef nonnull align 8 dereferenceable(224) %0) unnamed_addr #2 align 2 {
  tail call void @_ZN4ncnn5LayerC2Ev(ptr noundef nonnull align 8 dereferenceable(208) %0)
  store ptr getelementptr inbounds nuw inrange(-16, 80) (i8, ptr @_ZTVN4ncnn5InputE, i64 16), ptr %0, align 8, !tbaa !29
  %2 = getelementptr inbounds nuw i8, ptr %0, i64 8
  %3 = getelementptr inbounds nuw i8, ptr %0, i64 15
  store i8 1, ptr %3, align 1, !tbaa !31
  tail call void @llvm.memset.p0.i64(ptr noundef nonnull align 8 dereferenceable(5) %2, i8 1, i64 5, i1 false)
  ret void
}

declare void @_ZN4ncnn5LayerC2Ev(ptr noundef nonnull align 8 dereferenceable(208)) unnamed_addr #3

declare noundef i32 @_ZNK4ncnn9ParamDict3getEii(ptr noundef nonnull align 8 dereferenceable(16), i32 noundef, i32 noundef) local_unnamed_addr #3

; Function Attrs: nobuiltin nounwind
declare void @_ZdlPvm(ptr noundef, i64 noundef) local_unnamed_addr #5

; Function Attrs: nocallback nofree nounwind willreturn memory(argmem: write)
declare void @llvm.memset.p0.i64(ptr writeonly captures(none), i8, i64, i1 immarg) #6


!llvm.module.flags = !{!0, !1, !2, !3}

!0 = !{i32 1, !"wchar_size", i32 4}
!1 = !{i32 7, !"openmp", i32 51}
!2 = !{i32 8, !"PIC Level", i32 2}
!3 = !{i32 7, !"uwtable", i32 2}
!4 = !{!5, !10, i64 208}
!5 = !{!"_ZTSN4ncnn5InputE", !6, i64 0, !10, i64 208, !10, i64 212, !10, i64 216, !10, i64 220}
!6 = !{!"_ZTSN4ncnn5LayerE", !7, i64 8, !7, i64 9, !7, i64 10, !7, i64 11, !7, i64 12, !7, i64 13, !7, i64 14, !7, i64 15, !7, i64 16, !7, i64 17, !7, i64 18, !7, i64 19, !7, i64 20, !7, i64 21, !7, i64 22, !7, i64 23, !7, i64 24, !7, i64 25, !7, i64 26, !7, i64 27, !10, i64 28, !11, i64 32, !10, i64 40, !12, i64 48, !12, i64 80, !16, i64 112, !16, i64 136, !21, i64 160, !21, i64 184}
!7 = !{!"bool", !8, i64 0}
!8 = !{!"omnipotent char", !9, i64 0}
!9 = !{!"Simple C++ TBAA"}
!10 = !{!"int", !8, i64 0}
!11 = !{!"any pointer", !8, i64 0}
!12 = !{!"_ZTSNSt7__cxx1112basic_stringIcSt11char_traitsIcESaIcEEE", !13, i64 0, !15, i64 8, !8, i64 16}
!13 = !{!"_ZTSNSt7__cxx1112basic_stringIcSt11char_traitsIcESaIcEE12_Alloc_hiderE", !14, i64 0}
!14 = !{!"p1 omnipotent char", !11, i64 0}
!15 = !{!"long", !8, i64 0}
!16 = !{!"_ZTSSt6vectorIiSaIiEE", !17, i64 0}
!17 = !{!"_ZTSSt12_Vector_baseIiSaIiEE", !18, i64 0}
!18 = !{!"_ZTSNSt12_Vector_baseIiSaIiEE12_Vector_implE", !19, i64 0}
!19 = !{!"_ZTSNSt12_Vector_baseIiSaIiEE17_Vector_impl_dataE", !20, i64 0, !20, i64 8, !20, i64 16}
!20 = !{!"p1 int", !11, i64 0}
!21 = !{!"_ZTSSt6vectorIN4ncnn3MatESaIS1_EE", !22, i64 0}
!22 = !{!"_ZTSSt12_Vector_baseIN4ncnn3MatESaIS1_EE", !23, i64 0}
!23 = !{!"_ZTSNSt12_Vector_baseIN4ncnn3MatESaIS1_EE12_Vector_implE", !24, i64 0}
!24 = !{!"_ZTSNSt12_Vector_baseIN4ncnn3MatESaIS1_EE17_Vector_impl_dataE", !25, i64 0, !25, i64 8, !25, i64 16}
!25 = !{!"p1 _ZTSN4ncnn3MatE", !11, i64 0}
!26 = !{!5, !10, i64 212}
!27 = !{!5, !10, i64 216}
!28 = !{!5, !10, i64 220}
!29 = !{!30, !30, i64 0}
!30 = !{!"vtable pointer", !9, i64 0}
!31 = !{!6, !7, i64 15}
